target datalayout = "e-m:e-p270:32:32-p271:32:32-p272:64:64-i64:64-i128:128-f80:128-n8:16:32:64-S128"
target triple = "x86_64-pc-linux-gnu"

%class.Lhs = type <{ %class.Expression, ptr, ptr, i8, [7 x i8] }>
%class.Expression = type { ptr, i32, i32, ptr }

; Function Attrs: mustprogress uwtable
define dso_local void @_ZN3LhsC2ERK8VariablePK4Typeb(ptr noundef nonnull align 8 dereferenceable(41) %0, ptr noundef nonnull align 8 dereferenceable(200) %1, ptr noundef %2, i1 noundef zeroext %3) unnamed_addr #4 align 2 {
  %5 = alloca ptr, align 8
  %6 = alloca ptr, align 8
  %7 = alloca ptr, align 8
  %8 = alloca i8, align 1
  store ptr %0, ptr %5, align 8, !tbaa !99
  store ptr %1, ptr %6, align 8, !tbaa !19
  store ptr %2, ptr %7, align 8, !tbaa !9
  %9 = zext i1 %3 to i8
  store i8 %9, ptr %8, align 1, !tbaa !13
  %10 = load ptr, ptr %5, align 8
  call void @_ZN10ExpressionC2E9eTermType(ptr noundef nonnull align 8 dereferenceable(24) %10, i32 noundef 5)
  store ptr getelementptr inbounds inrange(-16, 176) ({ [24 x ptr] }, ptr @_ZTV3Lhs, i32 0, i32 0, i32 2), ptr %10, align 8, !tbaa !109
  %11 = getelementptr inbounds nuw %class.Lhs, ptr %10, i32 0, i32 1
  %12 = load ptr, ptr %6, align 8, !tbaa !19
  store ptr %12, ptr %11, align 8, !tbaa !19
  %13 = getelementptr inbounds nuw %class.Lhs, ptr %10, i32 0, i32 2
  %14 = load ptr, ptr %7, align 8, !tbaa !9
  store ptr %14, ptr %13, align 8, !tbaa !107
  %15 = getelementptr inbounds nuw %class.Lhs, ptr %10, i32 0, i32 3
  %16 = load i8, ptr %8, align 1, !tbaa !13, !range !21, !noundef !22
  %17 = trunc i8 %16 to i1
  %18 = zext i1 %17 to i8
  store i8 %18, ptr %15, align 8, !tbaa !103
  ret void
}