; Function Attrs: mustprogress uwtable
define dso_local void @_ZN3LhsC2ERK8VariablePK4Typeb(ptr noundef nonnull align 8 dereferenceable(41) %0, ptr noundef nonnull align 8 dereferenceable(200) %1, ptr noundef %2, i1 noundef zeroext %3) unnamed_addr #3 align 2 {
  %5 = zext i1 %3 to i8
  tail call void @_ZN10ExpressionC2E9eTermType(ptr noundef nonnull align 8 dereferenceable(24) %0, i32 noundef 5)
  store ptr getelementptr inbounds nuw inrange(-16, 176) (i8, ptr @_ZTV3Lhs, i64 16), ptr %0, align 8, !tbaa !89
  %6 = getelementptr inbounds nuw i8, ptr %0, i64 24
  store ptr %1, ptr %6, align 8, !tbaa !91
  %7 = getelementptr inbounds nuw i8, ptr %0, i64 32
  store ptr %2, ptr %7, align 8, !tbaa !92
  %8 = getelementptr inbounds nuw i8, ptr %0, i64 40
  store i8 %5, ptr %8, align 8, !tbaa !96
  ret void
}